target datalayout = "e-m:e-p270:32:32-p271:32:32-p272:64:64-i64:64-i128:128-f80:128-n8:16:32:64-S128"
target triple = "x86_64-pc-linux-gnu"

%"class.pbrt::ColorEncoding" = type { %"class.pbrt::TaggedPointer" }
%"class.pbrt::TaggedPointer" = type { i64 }
%"class.pbrt::Point2" = type { %"class.pbrt::Tuple2" }
%"class.pbrt::Tuple2" = type { i32, i32 }
%"class.pbrt::Image" = type { i32, %"class.pbrt::Point2", %"class.pstd::vector", %"class.pbrt::ColorEncoding", %"class.pstd::vector.28", %"class.pstd::vector.30", %"class.pstd::vector.32" }
%"class.pstd::vector" = type { %"class.pstd::pmr::polymorphic_allocator.27", ptr, i64, i64 }
%"class.pstd::pmr::polymorphic_allocator.27" = type { ptr }
%"class.pstd::vector.28" = type { %"class.pstd::pmr::polymorphic_allocator.29", ptr, i64, i64 }
%"class.pstd::pmr::polymorphic_allocator.29" = type { ptr }
%"class.pstd::vector.30" = type { %"class.pstd::pmr::polymorphic_allocator.31", ptr, i64, i64 }
%"class.pstd::pmr::polymorphic_allocator.31" = type { ptr }
%"class.pstd::vector.32" = type { %"class.pstd::pmr::polymorphic_allocator", ptr, i64, i64 }
%"class.pstd::pmr::polymorphic_allocator" = type { ptr }
%"class.pbrt::InlinedVector" = type { %"class.pstd::pmr::polymorphic_allocator", ptr, %union.anon.0, i64, i64 }
%union.anon.0 = type { [4 x float] }

@.str.5 = private unnamed_addr constant [117 x i8] c"generated/home/dtcxzyw/WorkSpace/Projects/compilers/llvm-opt-benchmark/bench/pbrt-v4/pbrt-v4/src/pbrt/util/image.cpp\00", align 1
@.str.24 = private unnamed_addr constant [45 x i8] c"Check failed: %s <= %s with %s = %s, %s = %s\00", align 1
@.str.25 = private unnamed_addr constant [14 x i8] c"values.size()\00", align 1
@.str.26 = private unnamed_addr constant [12 x i8] c"NChannels()\00", align 1

; Function Attrs: mustprogress nounwind uwtable
define linkonce_odr dso_local noundef i64 @_ZNK4pstd6vectorINSt7__cxx1112basic_stringIcSt11char_traitsIcESaIcEEENS_3pmr21polymorphic_allocatorIS6_EEE4sizeEv(ptr noundef nonnull align 8 dereferenceable(32) %0) #7 comdat align 2 {
  %2 = alloca ptr, align 8
  store ptr %0, ptr %2, align 8, !tbaa !162
  %3 = load ptr, ptr %2, align 8
  %4 = getelementptr inbounds nuw %"class.pstd::vector", ptr %3, i32 0, i32 3
  %5 = load i64, ptr %4, align 8, !tbaa !223
  ret i64 %5
}

; Function Attrs: mustprogress nounwind uwtable
define linkonce_odr dso_local noundef ptr @_ZNK4pbrt13InlinedVectorIfLi4EN4pstd3pmr21polymorphic_allocatorIfEEE3endEv(ptr noundef nonnull align 8 dereferenceable(48) %0) #7 comdat align 2 {
  %2 = alloca ptr, align 8
  store ptr %0, ptr %2, align 8, !tbaa !39
  %3 = load ptr, ptr %2, align 8
  %4 = call noundef ptr @_ZNK4pbrt13InlinedVectorIfLi4EN4pstd3pmr21polymorphic_allocatorIfEEE5beginEv(ptr noundef nonnull align 8 dereferenceable(48) %3)
  %5 = getelementptr inbounds nuw %"class.pbrt::InlinedVector", ptr %3, i32 0, i32 4
  %6 = load i64, ptr %5, align 8, !tbaa !387
  %7 = getelementptr inbounds nuw float, ptr %4, i64 %6
  ret ptr %7
}

; Function Attrs: mustprogress nounwind uwtable
define linkonce_odr dso_local noundef ptr @_ZNK4pbrt13InlinedVectorIfLi4EN4pstd3pmr21polymorphic_allocatorIfEEE5beginEv(ptr noundef nonnull align 8 dereferenceable(48) %0) #7 comdat align 2 {
  %2 = alloca ptr, align 8
  store ptr %0, ptr %2, align 8, !tbaa !39
  %3 = load ptr, ptr %2, align 8
  %4 = getelementptr inbounds nuw %"class.pbrt::InlinedVector", ptr %3, i32 0, i32 1
  %5 = load ptr, ptr %4, align 8, !tbaa !285
  %6 = icmp ne ptr %5, null
  br i1 %6, label %7, label %10

7:                                                ; preds = %1
  %8 = getelementptr inbounds nuw %"class.pbrt::InlinedVector", ptr %3, i32 0, i32 1
  %9 = load ptr, ptr %8, align 8, !tbaa !285
  br label %13

10:                                               ; preds = %1
  %11 = getelementptr inbounds nuw %"class.pbrt::InlinedVector", ptr %3, i32 0, i32 2
  %12 = getelementptr inbounds [4 x float], ptr %11, i64 0, i64 0
  br label %13

13:                                               ; preds = %10, %7
  %14 = phi ptr [ %9, %7 ], [ %12, %10 ]
  ret ptr %14
}

; Function Attrs: mustprogress uwtable
define linkonce_odr dso_local noundef i32 @_ZNK4pbrt5Image9NChannelsEv(ptr noundef nonnull align 8 dereferenceable(152) %0) #1 comdat align 2 {
  %2 = alloca ptr, align 8
  store ptr %0, ptr %2, align 8, !tbaa !66
  %3 = load ptr, ptr %2, align 8
  %4 = getelementptr inbounds nuw %"class.pbrt::Image", ptr %3, i32 0, i32 2
  %5 = call noundef i64 @_ZNK4pstd6vectorINSt7__cxx1112basic_stringIcSt11char_traitsIcESaIcEEENS_3pmr21polymorphic_allocatorIS6_EEE4sizeEv(ptr noundef nonnull align 8 dereferenceable(32) %4)
  %6 = trunc i64 %5 to i32
  ret i32 %6
}

; Function Attrs: mustprogress nounwind uwtable
define linkonce_odr dso_local noundef i64 @_ZNK4pbrt13InlinedVectorIfLi4EN4pstd3pmr21polymorphic_allocatorIfEEE4sizeEv(ptr noundef nonnull align 8 dereferenceable(48) %0) #7 comdat align 2 {
  %2 = alloca ptr, align 8
  store ptr %0, ptr %2, align 8, !tbaa !39
  %3 = load ptr, ptr %2, align 8
  %4 = getelementptr inbounds nuw %"class.pbrt::InlinedVector", ptr %3, i32 0, i32 4
  %5 = load i64, ptr %4, align 8, !tbaa !387
  ret i64 %5
}

; Function Attrs: mustprogress uwtable
define dso_local void @_ZN4pbrt5Image11SetChannelsENS_6Point2IiEERKNS_18ImageChannelValuesE(ptr noundef nonnull align 8 dereferenceable(152) %0, i64 %1, ptr noundef nonnull align 8 dereferenceable(48) %2) #1 align 2 {
  %4 = alloca %"class.pbrt::Point2", align 4
  %5 = alloca ptr, align 8
  %6 = alloca ptr, align 8
  %7 = alloca i64, align 8
  %8 = alloca i32, align 4
  %9 = alloca i32, align 4
  %10 = alloca ptr, align 8
  %11 = alloca %"class.pbrt::Point2", align 4
  %12 = getelementptr inbounds nuw %"class.pbrt::Point2", ptr %4, i32 0, i32 0
  store i64 %1, ptr %12, align 4
  store ptr %0, ptr %5, align 8, !tbaa !66
  store ptr %2, ptr %6, align 8, !tbaa !37
  %13 = load ptr, ptr %5, align 8
  br label %14

14:                                               ; preds = %3
  call void @llvm.lifetime.start.p0(i64 8, ptr %7) #5
  %15 = load ptr, ptr %6, align 8, !tbaa !37
  %16 = call noundef i64 @_ZNK4pbrt13InlinedVectorIfLi4EN4pstd3pmr21polymorphic_allocatorIfEEE4sizeEv(ptr noundef nonnull align 8 dereferenceable(48) %15)
  store i64 %16, ptr %7, align 8, !tbaa !114
  call void @llvm.lifetime.start.p0(i64 4, ptr %8) #5
  %17 = call noundef i32 @_ZNK4pbrt5Image9NChannelsEv(ptr noundef nonnull align 8 dereferenceable(152) %13)
  store i32 %17, ptr %8, align 4, !tbaa !22
  %18 = load i64, ptr %7, align 8, !tbaa !114
  %19 = load i32, ptr %8, align 4, !tbaa !22
  %20 = sext i32 %19 to i64
  %21 = icmp ule i64 %18, %20
  br i1 %21, label %23, label %22

22:                                               ; preds = %14
  call void @_ZN4pbrt8LogFatalIJRA14_KcRA12_S1_S3_RmS5_RiEEEvNS_8LogLevelEPS1_iS9_DpOT_(i32 noundef 2, ptr noundef @.str.5, i32 noundef 785, ptr noundef @.str.24, ptr noundef nonnull align 1 dereferenceable(14) @.str.25, ptr noundef nonnull align 1 dereferenceable(12) @.str.26, ptr noundef nonnull align 1 dereferenceable(14) @.str.25, ptr noundef nonnull align 8 dereferenceable(8) %7, ptr noundef nonnull align 1 dereferenceable(12) @.str.26, ptr noundef nonnull align 4 dereferenceable(4) %8) #28
  unreachable

23:                                               ; preds = %14
  call void @llvm.lifetime.end.p0(i64 4, ptr %8) #5
  call void @llvm.lifetime.end.p0(i64 8, ptr %7) #5
  br label %24

24:                                               ; preds = %23
  call void @llvm.lifetime.start.p0(i64 4, ptr %9) #5
  store i32 0, ptr %9, align 4, !tbaa !22
  call void @llvm.lifetime.start.p0(i64 8, ptr %10) #5
  %25 = load ptr, ptr %6, align 8, !tbaa !37
  %26 = call noundef ptr @_ZNK4pbrt13InlinedVectorIfLi4EN4pstd3pmr21polymorphic_allocatorIfEEE5beginEv(ptr noundef nonnull align 8 dereferenceable(48) %25)
  store ptr %26, ptr %10, align 8, !tbaa !107
  br label %27

27:                                               ; preds = %39, %24
  %28 = load ptr, ptr %10, align 8, !tbaa !107
  %29 = load ptr, ptr %6, align 8, !tbaa !37
  %30 = call noundef ptr @_ZNK4pbrt13InlinedVectorIfLi4EN4pstd3pmr21polymorphic_allocatorIfEEE3endEv(ptr noundef nonnull align 8 dereferenceable(48) %29)
  %31 = icmp ne ptr %28, %30
  br i1 %31, label %33, label %32

32:                                               ; preds = %27
  call void @llvm.lifetime.end.p0(i64 8, ptr %10) #5
  br label %44

33:                                               ; preds = %27
  call void @llvm.memcpy.p0.p0.i64(ptr align 4 %11, ptr align 4 %4, i64 8, i1 false)
  %34 = load i32, ptr %9, align 4, !tbaa !22
  %35 = load ptr, ptr %10, align 8, !tbaa !107
  %36 = load float, ptr %35, align 4, !tbaa !9
  %37 = getelementptr inbounds nuw %"class.pbrt::Point2", ptr %11, i32 0, i32 0
  %38 = load i64, ptr %37, align 4
  call void @_ZN4pbrt5Image10SetChannelENS_6Point2IiEEif(ptr noundef nonnull align 8 dereferenceable(152) %13, i64 %38, i32 noundef %34, float noundef %36)
  br label %39

39:                                               ; preds = %33
  %40 = load ptr, ptr %10, align 8, !tbaa !107
  %41 = getelementptr inbounds nuw float, ptr %40, i32 1
  store ptr %41, ptr %10, align 8, !tbaa !107
  %42 = load i32, ptr %9, align 4, !tbaa !22
  %43 = add nsw i32 %42, 1
  store i32 %43, ptr %9, align 4, !tbaa !22
  br label %27, !llvm.loop !386

44:                                               ; preds = %32
  call void @llvm.lifetime.end.p0(i64 4, ptr %9) #5
  ret void
}