; Function Attrs: mustprogress uwtable
define dso_local void @_ZN4pbrt5Image11SetChannelsENS_6Point2IiEERKNS_18ImageChannelValuesE(ptr noundef nonnull align 8 dereferenceable(152) %0, i64 %1, ptr noundef nonnull readonly align 8 dereferenceable(48) %2) local_unnamed_addr #8 align 2 {
  %4 = alloca i64, align 8
  %5 = alloca i32, align 4
  call void @llvm.lifetime.start.p0(i64 8, ptr nonnull %4) #35
  %6 = getelementptr inbounds nuw i8, ptr %2, i64 40
  %7 = load i64, ptr %6, align 8, !tbaa !213
  store i64 %7, ptr %4, align 8, !tbaa !24
  call void @llvm.lifetime.start.p0(i64 4, ptr nonnull %5) #35
  %8 = getelementptr inbounds nuw i8, ptr %0, i64 40
  %9 = load i64, ptr %8, align 8, !tbaa !61
  %10 = trunc i64 %9 to i32
  store i32 %10, ptr %5, align 4, !tbaa !13
  %sext = shl i64 %9, 32
  %11 = ashr exact i64 %sext, 32
  %.not = icmp ugt i64 %7, %11
  br i1 %.not, label %12, label %13

12:                                               ; preds = %3
  call void @_ZN4pbrt8LogFatalIJRA14_KcRA12_S1_S3_RmS5_RiEEEvNS_8LogLevelEPS1_iS9_DpOT_(i32 noundef 2, ptr noundef nonnull @.str.5, i32 noundef 785, ptr noundef nonnull @.str.24, ptr noundef nonnull align 1 dereferenceable(14) @.str.25, ptr noundef nonnull align 1 dereferenceable(12) @.str.26, ptr noundef nonnull align 1 dereferenceable(14) @.str.25, ptr noundef nonnull align 8 dereferenceable(8) %4, ptr noundef nonnull align 1 dereferenceable(12) @.str.26, ptr noundef nonnull align 4 dereferenceable(4) %5) #37
  unreachable

13:                                               ; preds = %3
  call void @llvm.lifetime.end.p0(i64 4, ptr nonnull %5) #35
  call void @llvm.lifetime.end.p0(i64 8, ptr nonnull %4) #35
  %14 = getelementptr inbounds nuw i8, ptr %2, i64 8
  %15 = getelementptr inbounds nuw i8, ptr %2, i64 16
  %.not1012 = icmp eq i64 %7, 0
  br i1 %.not1012, label %._crit_edge, label %.lr.ph.preheader

.lr.ph.preheader:                                 ; preds = %13
  %16 = load ptr, ptr %14, align 8, !tbaa !210
  %.not.i = icmp eq ptr %16, null
  %17 = select i1 %.not.i, ptr %15, ptr %16
  br label %.lr.ph

._crit_edge:                                      ; preds = %.lr.ph, %13
  ret void

.lr.ph:                                           ; preds = %.lr.ph.preheader, %.lr.ph
  %.014 = phi i32 [ %20, %.lr.ph ], [ 0, %.lr.ph.preheader ]
  %.0913 = phi ptr [ %19, %.lr.ph ], [ %17, %.lr.ph.preheader ]
  %18 = load float, ptr %.0913, align 4, !tbaa !68
  tail call void @_ZN4pbrt5Image10SetChannelENS_6Point2IiEEif(ptr noundef nonnull align 8 dereferenceable(152) %0, i64 %1, i32 noundef %.014, float noundef %18)
  %19 = getelementptr inbounds nuw i8, ptr %.0913, i64 4
  %20 = add nuw nsw i32 %.014, 1
  %21 = load ptr, ptr %14, align 8, !tbaa !210
  %.not.i.i = icmp eq ptr %21, null
  %22 = select i1 %.not.i.i, ptr %15, ptr %21
  %23 = load i64, ptr %6, align 8, !tbaa !213
  %24 = getelementptr inbounds nuw float, ptr %22, i64 %23
  %.not10 = icmp eq ptr %19, %24
  br i1 %.not10, label %._crit_edge, label %.lr.ph, !llvm.loop !304
}